target datalayout = "e-m:e-p270:32:32-p271:32:32-p272:64:64-i64:64-i128:128-f80:128-n8:16:32:64-S128"
target triple = "x86_64-pc-linux-gnu"

%struct.sched_param = type { i32 }

; Function Attrs: mustprogress nounwind uwtable
define void @_ZN7rocksdb4port14SetCpuPriorityEiNS_11CpuPriorityE(i32 noundef %0, i32 noundef %1) #3 {
  %3 = alloca i32, align 4
  %4 = alloca i32, align 4
  %5 = alloca %struct.sched_param, align 4
  store i32 %0, ptr %3, align 4, !tbaa !15
  store i32 %1, ptr %4, align 4, !tbaa !37
  call void @llvm.lifetime.start.p0(i64 4, ptr %5) #13
  %6 = getelementptr inbounds nuw %struct.sched_param, ptr %5, i32 0, i32 0
  store i32 0, ptr %6, align 4, !tbaa !39
  %7 = load i32, ptr %4, align 4, !tbaa !37
  switch i32 %7, label %26 [
    i32 3, label %8
    i32 2, label %13
    i32 1, label %18
    i32 0, label %23
  ]

8:                                                ; preds = %2
  %9 = load i32, ptr %3, align 4, !tbaa !15
  %10 = call i32 @sched_setscheduler(i32 noundef %9, i32 noundef 0, ptr noundef %5) #13
  %11 = load i32, ptr %3, align 4, !tbaa !15
  %12 = call i32 @setpriority(i32 noundef 0, i32 noundef %11, i32 noundef -20) #13
  br label %27

13:                                               ; preds = %2
  %14 = load i32, ptr %3, align 4, !tbaa !15
  %15 = call i32 @sched_setscheduler(i32 noundef %14, i32 noundef 0, ptr noundef %5) #13
  %16 = load i32, ptr %3, align 4, !tbaa !15
  %17 = call i32 @setpriority(i32 noundef 0, i32 noundef %16, i32 noundef 0) #13
  br label %27

18:                                               ; preds = %2
  %19 = load i32, ptr %3, align 4, !tbaa !15
  %20 = call i32 @sched_setscheduler(i32 noundef %19, i32 noundef 0, ptr noundef %5) #13
  %21 = load i32, ptr %3, align 4, !tbaa !15
  %22 = call i32 @setpriority(i32 noundef 0, i32 noundef %21, i32 noundef 19) #13
  br label %27

23:                                               ; preds = %2
  %24 = load i32, ptr %3, align 4, !tbaa !15
  %25 = call i32 @sched_setscheduler(i32 noundef %24, i32 noundef 5, ptr noundef %5) #13
  br label %27

26:                                               ; preds = %2
  br label %27

27:                                               ; preds = %26, %23, %18, %13, %8
  call void @llvm.lifetime.end.p0(i64 4, ptr %5) #13
  ret void
}