; Function Attrs: mustprogress nounwind uwtable
define void @_ZN7rocksdb4port14SetCpuPriorityEiNS_11CpuPriorityE(i32 noundef %0, i32 noundef %1) local_unnamed_addr #3 {
  %3 = alloca %struct.sched_param, align 4
  call void @llvm.lifetime.start.p0(i64 4, ptr nonnull %3) #17
  store i32 0, ptr %3, align 4, !tbaa !22
  switch i32 %1, label %15 [
    i32 3, label %4
    i32 2, label %7
    i32 1, label %10
    i32 0, label %13
  ]

4:                                                ; preds = %2
  %5 = call i32 @sched_setscheduler(i32 noundef %0, i32 noundef 0, ptr noundef nonnull %3) #17
  %6 = call i32 @setpriority(i32 noundef 0, i32 noundef %0, i32 noundef -20) #17
  br label %15

7:                                                ; preds = %2
  %8 = call i32 @sched_setscheduler(i32 noundef %0, i32 noundef 0, ptr noundef nonnull %3) #17
  %9 = call i32 @setpriority(i32 noundef 0, i32 noundef %0, i32 noundef 0) #17
  br label %15

10:                                               ; preds = %2
  %11 = call i32 @sched_setscheduler(i32 noundef %0, i32 noundef 0, ptr noundef nonnull %3) #17
  %12 = call i32 @setpriority(i32 noundef 0, i32 noundef %0, i32 noundef 19) #17
  br label %15

13:                                               ; preds = %2
  %14 = call i32 @sched_setscheduler(i32 noundef %0, i32 noundef 5, ptr noundef nonnull %3) #17
  br label %15

15:                                               ; preds = %2, %13, %10, %7, %4
  call void @llvm.lifetime.end.p0(i64 4, ptr nonnull %3) #17
  ret void
}